target datalayout = "e-m:e-p270:32:32-p271:32:32-p272:64:64-i64:64-i128:128-f80:128-n8:16:32:64-S128"
target triple = "x86_64-pc-linux-gnu"

%struct.dt_pthread_mutex_t = type { %union.pthread_mutex_t }
%union.pthread_mutex_t = type { %struct.__pthread_mutex_s }
%struct.__pthread_mutex_s = type { i32, i32, i32, i32, i32, i16, i16, %struct.__pthread_internal_list }
%struct.__pthread_internal_list = type { ptr, ptr }
%struct.dt_iop_module_t = type { i32, ptr, ptr, ptr, ptr, ptr, ptr, ptr, ptr, ptr, ptr, ptr, ptr, ptr, ptr, ptr, ptr, ptr, ptr, ptr, ptr, ptr, ptr, ptr, ptr, ptr, ptr, ptr, ptr, ptr, ptr, ptr, ptr, ptr, ptr, ptr, ptr, ptr, ptr, ptr, ptr, ptr, ptr, ptr, ptr, ptr, ptr, ptr, ptr, ptr, ptr, ptr, ptr, ptr, ptr, ptr, ptr, [20 x i8], i32, i32, i32, i32, i32, i32, i32, [8 x i8], [4 x float], [4 x float], [4 x float], [4 x float], [4 x float], [4 x float], ptr, %struct.dt_dev_histogram_stats_t, [4 x i32], i32, i32, ptr, i32, i32, ptr, ptr, i32, ptr, %struct.dt_pthread_mutex_t, ptr, ptr, ptr, ptr, %struct.anon, ptr, ptr, ptr, ptr, ptr, ptr, ptr, i32, ptr, ptr, ptr, ptr, ptr, ptr, ptr, i32, ptr, i32, [128 x i8], i32, ptr, ptr, i32, [12 x i8] }
%struct.dt_dev_histogram_stats_t = type { i32, i64, i32, i32 }
%struct.anon = type { %struct.anon.0, %struct.anon.1 }
%struct.anon.0 = type { ptr, ptr }
%struct.anon.1 = type { ptr, i32 }
%struct.dt_iop_rgblevels_params_t = type { i32, i32, [3 x [3 x float]] }

; Function Attrs: nounwind uwtable
define void @init(ptr noundef %0) #0 {
  %2 = alloca ptr, align 8
  %3 = alloca ptr, align 8
  %4 = alloca i32, align 4
  store ptr %0, ptr %2, align 8, !tbaa !6
  %5 = load ptr, ptr %2, align 8, !tbaa !6
  call void @dt_iop_default_init(ptr noundef %5)
  %6 = load ptr, ptr %2, align 8, !tbaa !6
  %7 = getelementptr inbounds nuw %struct.dt_iop_module_t, ptr %6, i32 0, i32 62
  %8 = load i32, ptr %7, align 4, !tbaa !150
  %9 = or i32 %8, 5
  store i32 %9, ptr %7, align 4, !tbaa !150
  call void @llvm.lifetime.start.p0(i64 8, ptr %3) #13
  %10 = load ptr, ptr %2, align 8, !tbaa !6
  %11 = getelementptr inbounds nuw %struct.dt_iop_module_t, ptr %10, i32 0, i32 81
  %12 = load ptr, ptr %11, align 16, !tbaa !151
  store ptr %12, ptr %3, align 8, !tbaa !126
  call void @llvm.lifetime.start.p0(i64 4, ptr %4) #13
  store i32 0, ptr %4, align 4, !tbaa !19
  br label %13

13:                                               ; preds = %36, %1
  %14 = load i32, ptr %4, align 4, !tbaa !19
  %15 = icmp slt i32 %14, 3
  br i1 %15, label %17, label %16

16:                                               ; preds = %13
  call void @llvm.lifetime.end.p0(i64 4, ptr %4) #13
  br label %39

17:                                               ; preds = %13
  %18 = load ptr, ptr %3, align 8, !tbaa !126
  %19 = getelementptr inbounds nuw %struct.dt_iop_rgblevels_params_t, ptr %18, i32 0, i32 2
  %20 = load i32, ptr %4, align 4, !tbaa !19
  %21 = sext i32 %20 to i64
  %22 = getelementptr inbounds [3 x [3 x float]], ptr %19, i64 0, i64 %21
  %23 = getelementptr inbounds [3 x float], ptr %22, i64 0, i64 0
  store float 0.000000e+00, ptr %23, align 4, !tbaa !15
  %24 = load ptr, ptr %3, align 8, !tbaa !126
  %25 = getelementptr inbounds nuw %struct.dt_iop_rgblevels_params_t, ptr %24, i32 0, i32 2
  %26 = load i32, ptr %4, align 4, !tbaa !19
  %27 = sext i32 %26 to i64
  %28 = getelementptr inbounds [3 x [3 x float]], ptr %25, i64 0, i64 %27
  %29 = getelementptr inbounds [3 x float], ptr %28, i64 0, i64 1
  store float 5.000000e-01, ptr %29, align 4, !tbaa !15
  %30 = load ptr, ptr %3, align 8, !tbaa !126
  %31 = getelementptr inbounds nuw %struct.dt_iop_rgblevels_params_t, ptr %30, i32 0, i32 2
  %32 = load i32, ptr %4, align 4, !tbaa !19
  %33 = sext i32 %32 to i64
  %34 = getelementptr inbounds [3 x [3 x float]], ptr %31, i64 0, i64 %33
  %35 = getelementptr inbounds [3 x float], ptr %34, i64 0, i64 2
  store float 1.000000e+00, ptr %35, align 4, !tbaa !15
  br label %36

36:                                               ; preds = %17
  %37 = load i32, ptr %4, align 4, !tbaa !19
  %38 = add nsw i32 %37, 1
  store i32 %38, ptr %4, align 4, !tbaa !19
  br label %13

39:                                               ; preds = %16
  call void @llvm.lifetime.end.p0(i64 8, ptr %3) #13
  ret void
}