; Function Attrs: nounwind uwtable
define void @init(ptr noundef %0) local_unnamed_addr #1 {
  tail call void @dt_iop_default_init(ptr noundef %0) #21
  %2 = getelementptr inbounds nuw i8, ptr %0, i64 492
  %3 = load i32, ptr %2, align 4, !tbaa !134
  %4 = or i32 %3, 5
  store i32 %4, ptr %2, align 4, !tbaa !134
  %5 = getelementptr inbounds nuw i8, ptr %0, i64 688
  %6 = load ptr, ptr %5, align 16, !tbaa !135
  %7 = getelementptr inbounds nuw i8, ptr %6, i64 8
  br label %9

8:                                                ; preds = %9
  ret void

9:                                                ; preds = %1, %9
  %indvars.iv = phi i64 [ 0, %1 ], [ %indvars.iv.next, %9 ]
  %10 = getelementptr inbounds nuw [3 x [3 x float]], ptr %7, i64 0, i64 %indvars.iv
  store float 0.000000e+00, ptr %10, align 4, !tbaa !37
  %11 = getelementptr inbounds nuw i8, ptr %10, i64 4
  store float 5.000000e-01, ptr %11, align 4, !tbaa !37
  %12 = getelementptr inbounds nuw i8, ptr %10, i64 8
  store float 1.000000e+00, ptr %12, align 4, !tbaa !37
  %indvars.iv.next = add nuw nsw i64 %indvars.iv, 1
  %exitcond.not = icmp eq i64 %indvars.iv.next, 3
  br i1 %exitcond.not, label %8, label %9
}